target datalayout = "e-m:e-p270:32:32-p271:32:32-p272:64:64-i64:64-i128:128-f80:128-n8:16:32:64-S128"
target triple = "x86_64-pc-linux-gnu"

%struct.Elf64_Ehdr = type { [16 x i8], i16, i16, i32, i64, i64, i64, i32, i16, i16, i16, i16, i16, i16 }
%"class.absl::debugging_internal::(anonymous namespace)::Symbolizer" = type { %"class.absl::debugging_internal::(anonymous namespace)::AddrMap", i8, i8, [3072 x i8], [8192 x i8], [6 x i8], [1024 x i8], [128 x %"struct.absl::debugging_internal::(anonymous namespace)::SymbolCacheLine"] }
%"class.absl::debugging_internal::(anonymous namespace)::AddrMap" = type { i64, i64, ptr }
%"struct.absl::debugging_internal::(anonymous namespace)::SymbolCacheLine" = type { [4 x ptr], [4 x ptr], [4 x i32] }
%"struct.absl::debugging_internal::(anonymous namespace)::ObjFile" = type { ptr, ptr, ptr, i64, i32, i32, %struct.Elf64_Ehdr, %"struct.std::array" }
%"struct.std::array" = type { [4 x %struct.Elf64_Phdr] }
%struct.Elf64_Phdr = type { i32, i32, i64, i64, i64, i64, i64, i64 }

; Function Attrs: mustprogress nounwind uwtable
define internal void @_ZN4absl18debugging_internal12_GLOBAL__N_17AddrMap5ClearEv(ptr noundef nonnull align 8 dereferenceable(24) %0) #4 align 2 {
  %2 = alloca ptr, align 8
  %3 = alloca i64, align 8
  store ptr %0, ptr %2, align 8, !tbaa !102
  %4 = load ptr, ptr %2, align 8
  call void @llvm.lifetime.start.p0(i64 8, ptr %3) #17
  store i64 0, ptr %3, align 8, !tbaa !20
  br label %5

5:                                                ; preds = %14, %1
  %6 = load i64, ptr %3, align 8, !tbaa !20
  %7 = getelementptr inbounds nuw %"class.absl::debugging_internal::(anonymous namespace)::AddrMap", ptr %4, i32 0, i32 0
  %8 = load i64, ptr %7, align 8, !tbaa !104
  %9 = icmp ne i64 %6, %8
  br i1 %9, label %11, label %10

10:                                               ; preds = %5
  call void @llvm.lifetime.end.p0(i64 8, ptr %3) #17
  br label %17

11:                                               ; preds = %5
  %12 = load i64, ptr %3, align 8, !tbaa !20
  %13 = call noundef ptr @_ZN4absl18debugging_internal12_GLOBAL__N_17AddrMap2AtEm(ptr noundef nonnull align 8 dereferenceable(24) %4, i64 noundef %12)
  br label %14

14:                                               ; preds = %11
  %15 = load i64, ptr %3, align 8, !tbaa !20
  %16 = add i64 %15, 1
  store i64 %16, ptr %3, align 8, !tbaa !20
  br label %5, !llvm.loop !180

17:                                               ; preds = %10
  %18 = getelementptr inbounds nuw %"class.absl::debugging_internal::(anonymous namespace)::AddrMap", ptr %4, i32 0, i32 0
  store i64 0, ptr %18, align 8, !tbaa !104
  ret void
}

; Function Attrs: mustprogress uwtable
define internal void @_ZN4absl18debugging_internal12_GLOBAL__N_110Symbolizer12ClearAddrMapEv(ptr noundef nonnull align 16 dereferenceable(22560) %0) #0 align 2 {
  %2 = alloca ptr, align 8
  %3 = alloca i64, align 8
  %4 = alloca ptr, align 8
  store ptr %0, ptr %2, align 8, !tbaa !74
  %5 = load ptr, ptr %2, align 8
  call void @llvm.lifetime.start.p0(i64 8, ptr %3) #17
  store i64 0, ptr %3, align 8, !tbaa !20
  br label %6

6:                                                ; preds = %29, %1
  %7 = load i64, ptr %3, align 8, !tbaa !20
  %8 = getelementptr inbounds nuw %"class.absl::debugging_internal::(anonymous namespace)::Symbolizer", ptr %5, i32 0, i32 0
  %9 = call noundef i64 @_ZNK4absl18debugging_internal12_GLOBAL__N_17AddrMap4SizeEv(ptr noundef nonnull align 8 dereferenceable(24) %8)
  %10 = icmp ne i64 %7, %9
  br i1 %10, label %12, label %11

11:                                               ; preds = %6
  call void @llvm.lifetime.end.p0(i64 8, ptr %3) #17
  br label %32

12:                                               ; preds = %6
  call void @llvm.lifetime.start.p0(i64 8, ptr %4) #17
  %13 = getelementptr inbounds nuw %"class.absl::debugging_internal::(anonymous namespace)::Symbolizer", ptr %5, i32 0, i32 0
  %14 = load i64, ptr %3, align 8, !tbaa !20
  %15 = call noundef ptr @_ZN4absl18debugging_internal12_GLOBAL__N_17AddrMap2AtEm(ptr noundef nonnull align 8 dereferenceable(24) %13, i64 noundef %14)
  store ptr %15, ptr %4, align 8, !tbaa !108
  %16 = load ptr, ptr %4, align 8, !tbaa !108
  %17 = getelementptr inbounds nuw %"struct.absl::debugging_internal::(anonymous namespace)::ObjFile", ptr %16, i32 0, i32 0
  %18 = load ptr, ptr %17, align 8, !tbaa !119
  call void @_ZN4absl13base_internal13LowLevelAlloc4FreeEPv(ptr noundef %18)
  %19 = load ptr, ptr %4, align 8, !tbaa !108
  %20 = getelementptr inbounds nuw %"struct.absl::debugging_internal::(anonymous namespace)::ObjFile", ptr %19, i32 0, i32 4
  %21 = load i32, ptr %20, align 8, !tbaa !121
  %22 = icmp sge i32 %21, 0
  br i1 %22, label %23, label %28

23:                                               ; preds = %12
  %24 = load ptr, ptr %4, align 8, !tbaa !108
  %25 = getelementptr inbounds nuw %"struct.absl::debugging_internal::(anonymous namespace)::ObjFile", ptr %24, i32 0, i32 4
  %26 = load i32, ptr %25, align 8, !tbaa !121
  %27 = call i32 @close(i32 noundef %26)
  br label %28

28:                                               ; preds = %23, %12
  call void @llvm.lifetime.end.p0(i64 8, ptr %4) #17
  br label %29

29:                                               ; preds = %28
  %30 = load i64, ptr %3, align 8, !tbaa !20
  %31 = add i64 %30, 1
  store i64 %31, ptr %3, align 8, !tbaa !20
  br label %6, !llvm.loop !159

32:                                               ; preds = %11
  %33 = getelementptr inbounds nuw %"class.absl::debugging_internal::(anonymous namespace)::Symbolizer", ptr %5, i32 0, i32 0
  call void @_ZN4absl18debugging_internal12_GLOBAL__N_17AddrMap5ClearEv(ptr noundef nonnull align 8 dereferenceable(24) %33)
  %34 = getelementptr inbounds nuw %"class.absl::debugging_internal::(anonymous namespace)::Symbolizer", ptr %5, i32 0, i32 2
  store i8 0, ptr %34, align 1, !tbaa !96
  ret void
}

; Function Attrs: mustprogress nounwind uwtable
define internal noundef ptr @_ZN4absl18debugging_internal12_GLOBAL__N_17AddrMap2AtEm(ptr noundef nonnull align 8 dereferenceable(24) %0, i64 noundef %1) #4 align 2 {
  %3 = alloca ptr, align 8
  %4 = alloca i64, align 8
  store ptr %0, ptr %3, align 8, !tbaa !102
  store i64 %1, ptr %4, align 8, !tbaa !20
  %5 = load ptr, ptr %3, align 8
  %6 = getelementptr inbounds nuw %"class.absl::debugging_internal::(anonymous namespace)::AddrMap", ptr %5, i32 0, i32 2
  %7 = load ptr, ptr %6, align 8, !tbaa !106
  %8 = load i64, ptr %4, align 8, !tbaa !20
  %9 = getelementptr inbounds nuw %"struct.absl::debugging_internal::(anonymous namespace)::ObjFile", ptr %7, i64 %8
  ret ptr %9
}

; Function Attrs: mustprogress nounwind uwtable
define internal noundef i64 @_ZNK4absl18debugging_internal12_GLOBAL__N_17AddrMap4SizeEv(ptr noundef nonnull align 8 dereferenceable(24) %0) #4 align 2 {
  %2 = alloca ptr, align 8
  store ptr %0, ptr %2, align 8, !tbaa !102
  %3 = load ptr, ptr %2, align 8
  %4 = getelementptr inbounds nuw %"class.absl::debugging_internal::(anonymous namespace)::AddrMap", ptr %3, i32 0, i32 0
  %5 = load i64, ptr %4, align 8, !tbaa !104
  ret i64 %5
}

; Function Attrs: mustprogress noinline uwtable
define internal noundef ptr @_ZN4absl18debugging_internal12_GLOBAL__N_110Symbolizer11FindObjFileEPKvm(ptr noundef nonnull align 16 dereferenceable(22560) %0, ptr noundef %1, i64 noundef %2) #15 align 2 {
  %4 = alloca ptr, align 8
  %5 = alloca ptr, align 8
  %6 = alloca ptr, align 8
  %7 = alloca i64, align 8
  %8 = alloca i32, align 4
  %9 = alloca i32, align 4
  %10 = alloca i64, align 8
  %11 = alloca i64, align 8
  %12 = alloca i64, align 8
  %13 = alloca ptr, align 8
  store ptr %0, ptr %5, align 8, !tbaa !74
  store ptr %1, ptr %6, align 8, !tbaa !36
  store i64 %2, ptr %7, align 8, !tbaa !20
  %14 = load ptr, ptr %5, align 8
  call void @llvm.lifetime.start.p0(i64 4, ptr %8) #17
  store i32 0, ptr %8, align 4, !tbaa !10
  br label %15

15:                                               ; preds = %102, %3
  %16 = load i32, ptr %8, align 4, !tbaa !10
  %17 = icmp slt i32 %16, 2
  br i1 %17, label %19, label %18

18:                                               ; preds = %15
  store i32 2, ptr %9, align 4
  br label %105

19:                                               ; preds = %15
  %20 = getelementptr inbounds nuw %"class.absl::debugging_internal::(anonymous namespace)::Symbolizer", ptr %14, i32 0, i32 1
  %21 = load i8, ptr %20, align 8, !tbaa !92, !range !51, !noundef !52
  %22 = trunc i8 %21 to i1
  br i1 %22, label %24, label %23

23:                                               ; preds = %19
  store ptr null, ptr %4, align 8
  store i32 1, ptr %9, align 4
  br label %105

24:                                               ; preds = %19
  %25 = getelementptr inbounds nuw %"class.absl::debugging_internal::(anonymous namespace)::Symbolizer", ptr %14, i32 0, i32 2
  %26 = load i8, ptr %25, align 1, !tbaa !96, !range !51, !noundef !52
  %27 = trunc i8 %26 to i1
  br i1 %27, label %36, label %28

28:                                               ; preds = %24
  %29 = getelementptr inbounds nuw %"class.absl::debugging_internal::(anonymous namespace)::Symbolizer", ptr %14, i32 0, i32 2
  store i8 1, ptr %29, align 1, !tbaa !96
  %30 = getelementptr inbounds nuw %"class.absl::debugging_internal::(anonymous namespace)::Symbolizer", ptr %14, i32 0, i32 6
  %31 = getelementptr inbounds [1024 x i8], ptr %30, i64 0, i64 0
  %32 = call noundef zeroext i1 @_ZN4absl18debugging_internalL11ReadAddrMapEPFbPKcPKvS4_mPvES5_S5_m(ptr noundef @_ZN4absl18debugging_internal12_GLOBAL__N_110Symbolizer15RegisterObjFileEPKcPKvS6_mPv, ptr noundef %14, ptr noundef %31, i64 noundef 1024)
  br i1 %32, label %35, label %33

33:                                               ; preds = %28
  %34 = getelementptr inbounds nuw %"class.absl::debugging_internal::(anonymous namespace)::Symbolizer", ptr %14, i32 0, i32 1
  store i8 0, ptr %34, align 8, !tbaa !92
  store ptr null, ptr %4, align 8
  store i32 1, ptr %9, align 4
  br label %105

35:                                               ; preds = %28
  br label %36

36:                                               ; preds = %35, %24
  call void @llvm.lifetime.start.p0(i64 8, ptr %10) #17
  store i64 0, ptr %10, align 8, !tbaa !20
  call void @llvm.lifetime.start.p0(i64 8, ptr %11) #17
  %37 = getelementptr inbounds nuw %"class.absl::debugging_internal::(anonymous namespace)::Symbolizer", ptr %14, i32 0, i32 0
  %38 = call noundef i64 @_ZNK4absl18debugging_internal12_GLOBAL__N_17AddrMap4SizeEv(ptr noundef nonnull align 8 dereferenceable(24) %37)
  store i64 %38, ptr %11, align 8, !tbaa !20
  br label %39

39:                                               ; preds = %60, %36
  %40 = load i64, ptr %10, align 8, !tbaa !20
  %41 = load i64, ptr %11, align 8, !tbaa !20
  %42 = icmp ult i64 %40, %41
  br i1 %42, label %43, label %61

43:                                               ; preds = %39
  call void @llvm.lifetime.start.p0(i64 8, ptr %12) #17
  %44 = load i64, ptr %10, align 8, !tbaa !20
  %45 = load i64, ptr %11, align 8, !tbaa !20
  %46 = add i64 %44, %45
  %47 = udiv i64 %46, 2
  store i64 %47, ptr %12, align 8, !tbaa !20
  %48 = load ptr, ptr %6, align 8, !tbaa !36
  %49 = getelementptr inbounds nuw %"class.absl::debugging_internal::(anonymous namespace)::Symbolizer", ptr %14, i32 0, i32 0
  %50 = load i64, ptr %12, align 8, !tbaa !20
  %51 = call noundef ptr @_ZN4absl18debugging_internal12_GLOBAL__N_17AddrMap2AtEm(ptr noundef nonnull align 8 dereferenceable(24) %49, i64 noundef %50)
  %52 = getelementptr inbounds nuw %"struct.absl::debugging_internal::(anonymous namespace)::ObjFile", ptr %51, i32 0, i32 2
  %53 = load ptr, ptr %52, align 8, !tbaa !134
  %54 = icmp ult ptr %48, %53
  br i1 %54, label %55, label %57

55:                                               ; preds = %43
  %56 = load i64, ptr %12, align 8, !tbaa !20
  store i64 %56, ptr %11, align 8, !tbaa !20
  br label %60

57:                                               ; preds = %43
  %58 = load i64, ptr %12, align 8, !tbaa !20
  %59 = add i64 %58, 1
  store i64 %59, ptr %10, align 8, !tbaa !20
  br label %60

60:                                               ; preds = %57, %55
  call void @llvm.lifetime.end.p0(i64 8, ptr %12) #17
  br label %39, !llvm.loop !135

61:                                               ; preds = %39
  %62 = load i64, ptr %10, align 8, !tbaa !20
  %63 = getelementptr inbounds nuw %"class.absl::debugging_internal::(anonymous namespace)::Symbolizer", ptr %14, i32 0, i32 0
  %64 = call noundef i64 @_ZNK4absl18debugging_internal12_GLOBAL__N_17AddrMap4SizeEv(ptr noundef nonnull align 8 dereferenceable(24) %63)
  %65 = icmp ne i64 %62, %64
  br i1 %65, label %66, label %98

66:                                               ; preds = %61
  call void @llvm.lifetime.start.p0(i64 8, ptr %13) #17
  %67 = getelementptr inbounds nuw %"class.absl::debugging_internal::(anonymous namespace)::Symbolizer", ptr %14, i32 0, i32 0
  %68 = load i64, ptr %10, align 8, !tbaa !20
  %69 = call noundef ptr @_ZN4absl18debugging_internal12_GLOBAL__N_17AddrMap2AtEm(ptr noundef nonnull align 8 dereferenceable(24) %67, i64 noundef %68)
  store ptr %69, ptr %13, align 8, !tbaa !108
  %70 = load ptr, ptr %13, align 8, !tbaa !108
  %71 = getelementptr inbounds nuw %"struct.absl::debugging_internal::(anonymous namespace)::ObjFile", ptr %70, i32 0, i32 2
  %72 = load ptr, ptr %71, align 8, !tbaa !134
  %73 = load ptr, ptr %6, align 8, !tbaa !36
  %74 = icmp ugt ptr %72, %73
  br i1 %74, label %75, label %76

75:                                               ; preds = %66
  br label %78

76:                                               ; preds = %66
  call void @abort() #24
  unreachable

77:                                               ; No predecessors!
  br label %78

78:                                               ; preds = %77, %75
  %79 = load ptr, ptr %6, align 8, !tbaa !36
  %80 = load ptr, ptr %13, align 8, !tbaa !108
  %81 = getelementptr inbounds nuw %"struct.absl::debugging_internal::(anonymous namespace)::ObjFile", ptr %80, i32 0, i32 1
  %82 = load ptr, ptr %81, align 8, !tbaa !109
  %83 = icmp uge ptr %79, %82
  br i1 %83, label %84, label %94

84:                                               ; preds = %78
  %85 = load ptr, ptr %6, align 8, !tbaa !36
  %86 = load i64, ptr %7, align 8, !tbaa !20
  %87 = getelementptr inbounds nuw i8, ptr %85, i64 %86
  %88 = load ptr, ptr %13, align 8, !tbaa !108
  %89 = getelementptr inbounds nuw %"struct.absl::debugging_internal::(anonymous namespace)::ObjFile", ptr %88, i32 0, i32 2
  %90 = load ptr, ptr %89, align 8, !tbaa !134
  %91 = icmp ule ptr %87, %90
  br i1 %91, label %92, label %94

92:                                               ; preds = %84
  %93 = load ptr, ptr %13, align 8, !tbaa !108
  store ptr %93, ptr %4, align 8
  store i32 1, ptr %9, align 4
  br label %95

94:                                               ; preds = %84, %78
  store i32 0, ptr %9, align 4
  br label %95

95:                                               ; preds = %94, %92
  call void @llvm.lifetime.end.p0(i64 8, ptr %13) #17
  %96 = load i32, ptr %9, align 4
  switch i32 %96, label %99 [
    i32 0, label %97
  ]

97:                                               ; preds = %95
  br label %98

98:                                               ; preds = %97, %61
  call void @_ZN4absl18debugging_internal12_GLOBAL__N_110Symbolizer12ClearAddrMapEv(ptr noundef nonnull align 16 dereferenceable(22560) %14)
  store i32 0, ptr %9, align 4
  br label %99

99:                                               ; preds = %98, %95
  call void @llvm.lifetime.end.p0(i64 8, ptr %11) #17
  call void @llvm.lifetime.end.p0(i64 8, ptr %10) #17
  %100 = load i32, ptr %9, align 4
  switch i32 %100, label %105 [
    i32 0, label %101
  ]

101:                                              ; preds = %99
  br label %102

102:                                              ; preds = %101
  %103 = load i32, ptr %8, align 4, !tbaa !10
  %104 = add nsw i32 %103, 1
  store i32 %104, ptr %8, align 4, !tbaa !10
  br label %15, !llvm.loop !136

105:                                              ; preds = %99, %33, %23, %18
  call void @llvm.lifetime.end.p0(i64 4, ptr %8) #17
  %106 = load i32, ptr %9, align 4
  switch i32 %106, label %110 [
    i32 2, label %107
    i32 1, label %108
  ]

107:                                              ; preds = %105
  store ptr null, ptr %4, align 8
  br label %108

108:                                              ; preds = %107, %105
  %109 = load ptr, ptr %4, align 8
  ret ptr %109

110:                                              ; preds = %105
  unreachable
}