; Function Attrs: mustprogress noinline uwtable
define internal fastcc noundef ptr @_ZN4absl18debugging_internal12_GLOBAL__N_110Symbolizer11FindObjFileEPKvm(ptr noundef nonnull align 16 dereferenceable(22560) %0, ptr noundef readnone captures(address) %1) unnamed_addr #15 align 2 {
  %3 = getelementptr inbounds nuw i8, ptr %0, i64 24
  %4 = getelementptr inbounds nuw i8, ptr %0, i64 25
  %5 = getelementptr inbounds nuw i8, ptr %0, i64 11296
  %6 = getelementptr inbounds nuw i8, ptr %0, i64 16
  br label %7

7:                                                ; preds = %2, %.loopexit
  %.not51 = phi i1 [ true, %2 ], [ false, %.loopexit ]
  %8 = load i8, ptr %3, align 8, !tbaa !43, !range !102, !noundef !103
  %9 = trunc nuw i8 %8 to i1
  br i1 %9, label %10, label %.loopexit45

10:                                               ; preds = %7
  %11 = load i8, ptr %4, align 1, !tbaa !48, !range !102, !noundef !103
  %12 = trunc nuw i8 %11 to i1
  br i1 %12, label %16, label %13

13:                                               ; preds = %10
  store i8 1, ptr %4, align 1, !tbaa !48
  %14 = tail call fastcc noundef zeroext i1 @_ZN4absl18debugging_internalL11ReadAddrMapEPFbPKcPKvS4_mPvES5_S5_m(ptr noundef %0, ptr noundef %5)
  br i1 %14, label %16, label %15

15:                                               ; preds = %13
  store i8 0, ptr %3, align 8, !tbaa !43
  br label %.loopexit45

16:                                               ; preds = %13, %10
  %.val = load i64, ptr %0, align 16, !tbaa !99
  %.not50 = icmp eq i64 %.val, 0
  br i1 %.not50, label %._crit_edge, label %.lr.ph

.lr.ph:                                           ; preds = %16
  %.val40 = load ptr, ptr %6, align 16, !tbaa !100
  br label %17

17:                                               ; preds = %.lr.ph, %17
  %.02648 = phi i64 [ %.val, %.lr.ph ], [ %.127, %17 ]
  %.02847 = phi i64 [ 0, %.lr.ph ], [ %.129, %17 ]
  %18 = add i64 %.02648, %.02847
  %19 = lshr i64 %18, 1
  %20 = getelementptr inbounds nuw %"struct.absl::debugging_internal::(anonymous namespace)::ObjFile", ptr %.val40, i64 %19, i32 2
  %21 = load ptr, ptr %20, align 8, !tbaa !104
  %22 = icmp ult ptr %1, %21
  %23 = add nuw i64 %19, 1
  %.129 = select i1 %22, i64 %.02847, i64 %23
  %.127 = select i1 %22, i64 %19, i64 %.02648
  %24 = icmp ult i64 %.129, %.127
  br i1 %24, label %17, label %._crit_edge, !llvm.loop !105

._crit_edge:                                      ; preds = %17, %16
  %.028.lcssa = phi i64 [ 0, %16 ], [ %.129, %17 ]
  %.not = icmp eq i64 %.028.lcssa, %.val
  br i1 %.not, label %34, label %25

25:                                               ; preds = %._crit_edge
  %.val41 = load ptr, ptr %6, align 16, !tbaa !100
  %26 = getelementptr inbounds nuw %"struct.absl::debugging_internal::(anonymous namespace)::ObjFile", ptr %.val41, i64 %.028.lcssa
  %27 = getelementptr inbounds nuw i8, ptr %26, i64 16
  %28 = load ptr, ptr %27, align 8, !tbaa !104
  %29 = icmp ugt ptr %28, %1
  br i1 %29, label %31, label %30

30:                                               ; preds = %25
  tail call void @abort() #29
  unreachable

31:                                               ; preds = %25
  %32 = getelementptr inbounds nuw i8, ptr %26, i64 8
  %33 = load ptr, ptr %32, align 8, !tbaa !55
  %.not35 = icmp ult ptr %1, %33
  br i1 %.not35, label %34, label %.loopexit45

34:                                               ; preds = %31, %._crit_edge
  br i1 %.not50, label %.loopexit, label %.lr.ph.i

.lr.ph.i:                                         ; preds = %34, %42
  %.010.i = phi i64 [ %43, %42 ], [ 0, %34 ]
  %.val7.i = load ptr, ptr %6, align 16, !tbaa !100
  %35 = getelementptr inbounds nuw %"struct.absl::debugging_internal::(anonymous namespace)::ObjFile", ptr %.val7.i, i64 %.010.i
  %36 = load ptr, ptr %35, align 8, !tbaa !54
  tail call void @_ZN4absl13base_internal13LowLevelAlloc4FreeEPv(ptr noundef %36)
  %37 = getelementptr inbounds nuw i8, ptr %35, i64 32
  %38 = load i32, ptr %37, align 8, !tbaa !51
  %39 = icmp sgt i32 %38, -1
  br i1 %39, label %40, label %42

40:                                               ; preds = %.lr.ph.i
  %41 = tail call i32 @close(i32 noundef %38)
  br label %42

42:                                               ; preds = %40, %.lr.ph.i
  %43 = add i64 %.010.i, 1
  %.val.i = load i64, ptr %0, align 16, !tbaa !99
  %.not.i = icmp eq i64 %43, %.val.i
  br i1 %.not.i, label %.loopexit, label %.lr.ph.i, !llvm.loop !101

.loopexit:                                        ; preds = %42, %34
  store i64 0, ptr %0, align 16, !tbaa !99
  store i8 0, ptr %4, align 1, !tbaa !48
  br i1 %.not51, label %7, label %.loopexit45, !llvm.loop !106

.loopexit45:                                      ; preds = %31, %7, %.loopexit, %15
  %spec.select = phi ptr [ null, %15 ], [ %26, %31 ], [ null, %7 ], [ null, %.loopexit ]
  ret ptr %spec.select
}